target datalayout = "e-m:e-p270:32:32-p271:32:32-p272:64:64-i64:64-i128:128-f80:128-n8:16:32:64-S128"
target triple = "x86_64-pc-linux-gnu"

%struct._e_prefs = type { ptr, i32, %struct.color_t, %struct.color_t, %struct.color_t, %struct.color_t, %struct.color_t, %struct.color_t, %struct.color_t, i8, i32, ptr, i32, %struct.color_t, %struct.color_t, i32, %struct.color_t, %struct.color_t, i32, %struct.color_t, %struct.color_t, %struct.color_t, %struct.color_t, ptr, ptr, i8, i8, i8, i32, i32, i32, ptr, i32, ptr, i8, i8, i8, ptr, ptr, ptr, i32, i32, i32, i32, i8, i32, i32, i32, i32, i32, ptr, i8, i8, i8, i8, i8, ptr, ptr, ptr, ptr, ptr, ptr, ptr, ptr, ptr, i8, i8, i8, i8, i32, i8, i8, i8, ptr, i32, i8, i8, i32, i8, i8, i8, i32, i8, i32, i8, i8, i8, i32, i32, i32, ptr, i8, i8, i8, i8, i8, i8, i32, i32, i8, i8, i8, i8, i32, i32, i32, i32, i8, i8, i32, i8, i8, i32, i32, i8, i8, i8, i32, i8, i8, i8 }
%struct.color_t = type { i16, i16, i16 }
%struct.nstime_t = type { i64, i32 }
%struct._frame_data = type <{ i32, i32, i32, i32, i32, [4 x i8], i64, ptr, ptr, ptr, i8, i16, [5 x i8], %struct.nstime_t, %struct.nstime_t, i32, i32 }>
%struct._GHashTableIter = type { ptr, ptr, ptr, i32, i32, ptr }

@prefs = external global %struct._e_prefs, align 8

; Function Attrs: null_pointer_is_valid sspstrong uwtable
define internal void @depended_frames_add(ptr noundef %0, ptr noundef %1, ptr noundef %2, i32 noundef %3) #0 {
  %5 = alloca ptr, align 8
  %6 = alloca ptr, align 8
  %7 = alloca ptr, align 8
  %8 = alloca i32, align 4
  %9 = alloca %struct._GHashTableIter, align 8
  %10 = alloca ptr, align 8
  %11 = alloca ptr, align 8
  store ptr %0, ptr %5, align 8
  store ptr %1, ptr %6, align 8
  store ptr %2, ptr %7, align 8
  store i32 %3, ptr %8, align 4
  %12 = load i32, ptr %8, align 4
  %13 = load i32, ptr getelementptr inbounds nuw (%struct._e_prefs, ptr @prefs, i32 0, i32 43), align 4
  %14 = icmp ugt i32 %12, %13
  br i1 %14, label %15, label %16

15:                                               ; preds = %4
  br label %49

16:                                               ; preds = %4
  %17 = load ptr, ptr %5, align 8
  %18 = load ptr, ptr %7, align 8
  %19 = getelementptr inbounds nuw %struct._frame_data, ptr %18, i32 0, i32 0
  %20 = load i32, ptr %19, align 8
  %21 = zext i32 %20 to i64
  %22 = inttoptr i64 %21 to ptr
  %23 = call i32 @g_hash_table_add(ptr noundef %17, ptr noundef %22)
  %24 = icmp ne i32 %23, 0
  br i1 %24, label %25, label %49

25:                                               ; preds = %16
  %26 = load ptr, ptr %7, align 8
  %27 = getelementptr inbounds nuw %struct._frame_data, ptr %26, i32 0, i32 8
  %28 = load ptr, ptr %27, align 8
  %29 = icmp ne ptr %28, null
  br i1 %29, label %30, label %49

30:                                               ; preds = %25
  call void @llvm.lifetime.start.p0(i64 40, ptr %9) #9
  call void @llvm.lifetime.start.p0(i64 8, ptr %10) #9
  call void @llvm.lifetime.start.p0(i64 8, ptr %11) #9
  %31 = load ptr, ptr %7, align 8
  %32 = getelementptr inbounds nuw %struct._frame_data, ptr %31, i32 0, i32 8
  %33 = load ptr, ptr %32, align 8
  call void @g_hash_table_iter_init(ptr noundef %9, ptr noundef %33)
  br label %34

34:                                               ; preds = %37, %30
  %35 = call i32 @g_hash_table_iter_next(ptr noundef %9, ptr noundef %10, ptr noundef null)
  %36 = icmp ne i32 %35, 0
  br i1 %36, label %37, label %48

37:                                               ; preds = %34
  %38 = load ptr, ptr %6, align 8
  %39 = load ptr, ptr %10, align 8
  %40 = ptrtoint ptr %39 to i64
  %41 = trunc i64 %40 to i32
  %42 = call ptr @frame_data_sequence_find(ptr noundef %38, i32 noundef %41)
  store ptr %42, ptr %11, align 8
  %43 = load ptr, ptr %5, align 8
  %44 = load ptr, ptr %6, align 8
  %45 = load ptr, ptr %11, align 8
  %46 = load i32, ptr %8, align 4
  %47 = add i32 %46, 1
  call void @depended_frames_add(ptr noundef %43, ptr noundef %44, ptr noundef %45, i32 noundef %47)
  br label %34, !llvm.loop !13

48:                                               ; preds = %34
  call void @llvm.lifetime.end.p0(i64 8, ptr %11) #9
  call void @llvm.lifetime.end.p0(i64 8, ptr %10) #9
  call void @llvm.lifetime.end.p0(i64 40, ptr %9) #9
  br label %49

49:                                               ; preds = %15, %48, %25, %16
  ret void
}