; Function Attrs: null_pointer_is_valid sspstrong uwtable
define internal fastcc void @depended_frames_add(ptr noundef %0, ptr noundef %1, ptr noundef readonly captures(none) %2, i32 noundef %3) unnamed_addr #0 {
  %5 = alloca %struct._GHashTableIter, align 8
  %6 = alloca ptr, align 8
  %7 = load i32, ptr getelementptr inbounds nuw (i8, ptr @prefs, i64 236), align 4
  %8 = icmp ugt i32 %3, %7
  br i1 %8, label %26, label %9

9:                                                ; preds = %4
  %10 = load i32, ptr %2, align 8
  %11 = zext i32 %10 to i64
  %12 = inttoptr i64 %11 to ptr
  %13 = tail call i32 @g_hash_table_add(ptr noundef %0, ptr noundef %12)
  %.not = icmp eq i32 %13, 0
  br i1 %.not, label %26, label %14

14:                                               ; preds = %9
  %15 = getelementptr inbounds nuw i8, ptr %2, i64 40
  %16 = load ptr, ptr %15, align 8
  %.not9 = icmp eq ptr %16, null
  br i1 %.not9, label %26, label %17

17:                                               ; preds = %14
  call void @llvm.lifetime.start.p0(i64 40, ptr nonnull %5) #9
  call void @llvm.lifetime.start.p0(i64 8, ptr nonnull %6) #9
  call void @g_hash_table_iter_init(ptr noundef nonnull %5, ptr noundef nonnull %16)
  %18 = call i32 @g_hash_table_iter_next(ptr noundef nonnull %5, ptr noundef nonnull %6, ptr noundef null)
  %.not1011 = icmp eq i32 %18, 0
  br i1 %.not1011, label %._crit_edge, label %.lr.ph

.lr.ph:                                           ; preds = %17
  %19 = add i32 %3, 1
  br label %20

20:                                               ; preds = %.lr.ph, %20
  %21 = load ptr, ptr %6, align 8
  %22 = ptrtoint ptr %21 to i64
  %23 = trunc i64 %22 to i32
  %24 = call ptr @frame_data_sequence_find(ptr noundef %1, i32 noundef %23)
  call fastcc void @depended_frames_add(ptr noundef %0, ptr noundef %1, ptr noundef %24, i32 noundef %19)
  %25 = call i32 @g_hash_table_iter_next(ptr noundef nonnull %5, ptr noundef nonnull %6, ptr noundef null)
  %.not10 = icmp eq i32 %25, 0
  br i1 %.not10, label %._crit_edge, label %20, !llvm.loop !13

._crit_edge:                                      ; preds = %20, %17
  call void @llvm.lifetime.end.p0(i64 8, ptr nonnull %6) #9
  call void @llvm.lifetime.end.p0(i64 40, ptr nonnull %5) #9
  br label %26

26:                                               ; preds = %4, %._crit_edge, %14, %9
  ret void
}